target datalayout = "e-m:e-p270:32:32-p271:32:32-p272:64:64-i64:64-i128:128-f80:128-n8:16:32:64-S128"
target triple = "x86_64-pc-linux-gnu"

%"class.gmx::AnalysisDataFrameRef" = type { %"class.gmx::AnalysisDataFrameHeader", %"class.gmx::ArrayRef", %"class.gmx::ArrayRef.10" }
%"class.gmx::AnalysisDataFrameHeader" = type { i32, float, float }
%"class.gmx::ArrayRef" = type { %"struct.gmx::ArrayRefIter", %"struct.gmx::ArrayRefIter" }
%"struct.gmx::ArrayRefIter" = type { ptr }
%"class.gmx::ArrayRef.10" = type { %"struct.gmx::ArrayRefIter.11", %"struct.gmx::ArrayRefIter.11" }
%"struct.gmx::ArrayRefIter.11" = type { ptr }

; Function Attrs: mustprogress uwtable
define void @_ZNK3gmx20AbstractAnalysisData15tryGetDataFrameEi(ptr dead_on_unwind noalias writable sret(%"class.gmx::AnalysisDataFrameRef") align 8 %0, ptr noundef nonnull align 8 dereferenceable(16) %1, i32 noundef %2) #1 align 2 {
  %4 = alloca ptr, align 8
  %5 = alloca i32, align 4
  store ptr %1, ptr %4, align 8, !tbaa !4
  store i32 %2, ptr %5, align 4, !tbaa !27
  %6 = load ptr, ptr %4, align 8
  %7 = load i32, ptr %5, align 4, !tbaa !27
  %8 = icmp slt i32 %7, 0
  br i1 %8, label %16, label %9

9:                                                ; preds = %3
  %10 = load i32, ptr %5, align 4, !tbaa !27
  %11 = load ptr, ptr %6, align 8, !tbaa !59
  %12 = getelementptr inbounds ptr, ptr %11, i64 2
  %13 = load ptr, ptr %12, align 8
  %14 = call noundef i32 %13(ptr noundef nonnull align 8 dereferenceable(16) %6)
  %15 = icmp sge i32 %10, %14
  br i1 %15, label %16, label %17

16:                                               ; preds = %9, %3
  call void @_ZN3gmx20AnalysisDataFrameRefC1Ev(ptr noundef nonnull align 8 dereferenceable(48) %0)
  br label %22

17:                                               ; preds = %9
  %18 = load i32, ptr %5, align 4, !tbaa !27
  %19 = load ptr, ptr %6, align 8, !tbaa !59
  %20 = getelementptr inbounds ptr, ptr %19, i64 3
  %21 = load ptr, ptr %20, align 8
  call void %21(ptr dead_on_unwind writable sret(%"class.gmx::AnalysisDataFrameRef") align 8 %0, ptr noundef nonnull align 8 dereferenceable(16) %6, i32 noundef %18)
  br label %22

22:                                               ; preds = %17, %16
  ret void
}