; Function Attrs: mustprogress uwtable
define void @_ZNK3gmx20AbstractAnalysisData15tryGetDataFrameEi(ptr dead_on_unwind noalias writable sret(%"class.gmx::AnalysisDataFrameRef") align 8 %0, ptr noundef nonnull align 8 dereferenceable(16) %1, i32 noundef %2) local_unnamed_addr #1 align 2 {
  %4 = icmp slt i32 %2, 0
  br i1 %4, label %10, label %5

5:                                                ; preds = %3
  %6 = load ptr, ptr %1, align 8, !tbaa !14
  %7 = getelementptr inbounds nuw i8, ptr %6, i64 16
  %8 = load ptr, ptr %7, align 8
  %9 = tail call noundef i32 %8(ptr noundef nonnull align 8 dereferenceable(16) %1)
  %.not = icmp slt i32 %2, %9
  br i1 %.not, label %11, label %10

10:                                               ; preds = %5, %3
  tail call void @_ZN3gmx20AnalysisDataFrameRefC1Ev(ptr noundef nonnull align 8 dereferenceable(48) %0)
  br label %15

11:                                               ; preds = %5
  %12 = load ptr, ptr %1, align 8, !tbaa !14
  %13 = getelementptr inbounds nuw i8, ptr %12, i64 24
  %14 = load ptr, ptr %13, align 8
  tail call void %14(ptr dead_on_unwind writable sret(%"class.gmx::AnalysisDataFrameRef") align 8 %0, ptr noundef nonnull align 8 dereferenceable(16) %1, i32 noundef %2)
  br label %15

15:                                               ; preds = %11, %10
  ret void
}